; Function Attrs: mustprogress nounwind uwtable
define void @_ZN4pkpy5TupleC2EPNS_8PyObjectES2_S2_S2_(ptr nocapture noundef nonnull align 8 dereferenceable(36) %0, ptr noundef %1, ptr noundef %2, ptr noundef %3, ptr noundef %4) unnamed_addr #3 align 2 {
  %6 = tail call noundef ptr @_ZN4pkpy12pool64_allocEm(i64 noundef 32) #10
  store ptr %6, ptr %0, align 8
  %7 = getelementptr inbounds i8, ptr %0, i64 32
  store i32 4, ptr %7, align 8
  store ptr %1, ptr %6, align 8
  %8 = load ptr, ptr %0, align 8
  %9 = getelementptr inbounds i8, ptr %8, i64 8
  store ptr %2, ptr %9, align 8
  %10 = load ptr, ptr %0, align 8
  %11 = getelementptr inbounds i8, ptr %10, i64 16
  store ptr %3, ptr %11, align 8
  %12 = load ptr, ptr %0, align 8
  %13 = getelementptr inbounds i8, ptr %12, i64 24
  store ptr %4, ptr %13, align 8
  ret void
}